target datalayout = "e-m:e-p270:32:32-p271:32:32-p272:64:64-i64:64-i128:128-f80:128-n8:16:32:64-S128"
target triple = "x86_64-pc-linux-gnu"

%struct.StepRequest = type { i32, i32, i8, i8, i8, i32, i32, ptr, ptr, i32, ptr, ptr, ptr, ptr }
%struct.BackendGlobalData = type <{ ptr, ptr, i8, i8, i8, i8, i8, i8, i8, i8, i8, [3 x i8], i32, ptr, ptr, ptr, ptr, ptr, ptr, ptr, ptr, ptr, ptr, ptr, ptr, ptr, i32, %struct.jvmtiCapabilities, i8, [3 x i8], %struct.jvmtiEventCallbacks, ptr, ptr, ptr, ptr, ptr, ptr, ptr, i32, [4 x i8], ptr, i64, i32, [4 x i8], ptr, i32, i32, i8, i8, [6 x i8] }>
%struct.jvmtiCapabilities = type { i64, i64 }
%struct.jvmtiEventCallbacks = type { ptr, ptr, ptr, ptr, ptr, ptr, ptr, ptr, ptr, ptr, ptr, ptr, ptr, ptr, ptr, ptr, ptr, ptr, ptr, ptr, ptr, ptr, ptr, ptr, ptr, ptr, ptr, ptr, ptr, ptr, ptr, ptr, ptr, ptr, ptr, ptr, ptr, ptr, ptr }

@stderr = external global ptr, align 8
@.str = private unnamed_addr constant [17 x i8] c"JDWP exit error \00", align 1
@.str.1 = private unnamed_addr constant [2 x i8] c"\0A\00", align 1
@.str.2 = private unnamed_addr constant [19 x i8] c"%s(%d): %s [%s:%d]\00", align 1
@.str.4 = private unnamed_addr constant [54 x i8] c"src/jdk.jdwp.agent/share/native/libjdwp/stepControl.c\00", align 1
@gdata = external global ptr, align 8
@.str.5 = private unnamed_addr constant [5 x i8] c"STEP\00", align 1
@stepLock = internal global ptr null, align 8
@.str.29 = private unnamed_addr constant [50 x i8] c"stepControl_beginStep: thread=%p,size=%d,depth=%d\00", align 1
@.str.30 = private unnamed_addr constant [45 x i8] c"stepControl_beginStep: cannot suspend thread\00", align 1
@.str.46 = private unnamed_addr constant [34 x i8] c"step->framePopHandlerNode == NULL\00", align 1
@.str.47 = private unnamed_addr constant [31 x i8] c"installing step event handlers\00", align 1
@.str.48 = private unnamed_addr constant [10 x i8] c"JNI_FALSE\00", align 1

; Function Attrs: nounwind uwtable
define hidden void @stepControl_unlock() #0 {
  %1 = load ptr, ptr @stepLock, align 8
  call void @debugMonitorExit(ptr noundef %1)
  ret void
}

; Function Attrs: nounwind uwtable
define internal void @initEvents(ptr noundef %0, ptr noundef %1) #0 {
  %3 = alloca ptr, align 8
  %4 = alloca ptr, align 8
  store ptr %0, ptr %3, align 8
  store ptr %1, ptr %4, align 8
  %5 = load ptr, ptr %4, align 8
  %6 = getelementptr inbounds %struct.StepRequest, ptr %5, i32 0, i32 1
  %7 = load i32, ptr %6, align 4
  %8 = icmp eq i32 %7, 0
  br i1 %8, label %14, label %9

9:                                                ; preds = %2
  %10 = load ptr, ptr %4, align 8
  %11 = getelementptr inbounds %struct.StepRequest, ptr %10, i32 0, i32 5
  %12 = load i32, ptr %11, align 4
  %13 = icmp sgt i32 %12, 0
  br i1 %13, label %14, label %53

14:                                               ; preds = %9, %2
  %15 = load ptr, ptr %3, align 8
  %16 = call ptr @eventHandler_createInternalThreadOnly(i32 noundef 12, ptr noundef @handleExceptionCatchEvent, ptr noundef %15)
  %17 = load ptr, ptr %4, align 8
  %18 = getelementptr inbounds %struct.StepRequest, ptr %17, i32 0, i32 11
  store ptr %16, ptr %18, align 8
  br label %19

19:                                               ; preds = %14
  %20 = load ptr, ptr @gdata, align 8
  %21 = icmp ne ptr %20, null
  br i1 %21, label %22, label %34

22:                                               ; preds = %19
  %23 = load ptr, ptr @gdata, align 8
  %24 = getelementptr inbounds %struct.BackendGlobalData, ptr %23, i32 0, i32 3
  %25 = load i8, ptr %24, align 1
  %26 = zext i8 %25 to i32
  %27 = icmp ne i32 %26, 0
  br i1 %27, label %28, label %34

28:                                               ; preds = %22
  %29 = load ptr, ptr %4, align 8
  %30 = getelementptr inbounds %struct.StepRequest, ptr %29, i32 0, i32 12
  %31 = load ptr, ptr %30, align 8
  %32 = icmp eq ptr %31, null
  br i1 %32, label %34, label %33

33:                                               ; preds = %28
  call void @jdiAssertionFailed(ptr noundef @.str.4, i32 noundef 751, ptr noundef @.str.46)
  br label %34

34:                                               ; preds = %33, %28, %22, %19
  br label %35

35:                                               ; preds = %34
  %36 = load ptr, ptr %3, align 8
  %37 = call ptr @eventHandler_createInternalThreadOnly(i32 noundef 3, ptr noundef @handleFramePopEvent, ptr noundef %36)
  %38 = load ptr, ptr %4, align 8
  %39 = getelementptr inbounds %struct.StepRequest, ptr %38, i32 0, i32 12
  store ptr %37, ptr %39, align 8
  %40 = load ptr, ptr %4, align 8
  %41 = getelementptr inbounds %struct.StepRequest, ptr %40, i32 0, i32 11
  %42 = load ptr, ptr %41, align 8
  %43 = icmp eq ptr %42, null
  br i1 %43, label %49, label %44

44:                                               ; preds = %35
  %45 = load ptr, ptr %4, align 8
  %46 = getelementptr inbounds %struct.StepRequest, ptr %45, i32 0, i32 12
  %47 = load ptr, ptr %46, align 8
  %48 = icmp eq ptr %47, null
  br i1 %48, label %49, label %52

49:                                               ; preds = %44, %35
  %50 = load ptr, ptr @stderr, align 8
  %51 = call ptr @jvmtiErrorText(i32 noundef 204)
  call void (ptr, ptr, ptr, ptr, ...) @print_message(ptr noundef %50, ptr noundef @.str, ptr noundef @.str.1, ptr noundef @.str.2, ptr noundef %51, i32 noundef 204, ptr noundef @.str.47, ptr noundef @.str.4, i32 noundef 760)
  call void @debugInit_exit(i32 noundef 204, ptr noundef @.str.47)
  br label %52

52:                                               ; preds = %49, %44
  br label %53

53:                                               ; preds = %52, %9
  %54 = load ptr, ptr %4, align 8
  %55 = getelementptr inbounds %struct.StepRequest, ptr %54, i32 0, i32 1
  %56 = load i32, ptr %55, align 4
  switch i32 %56, label %86 [
    i32 0, label %57
    i32 1, label %59
    i32 2, label %72
  ]

57:                                               ; preds = %53
  %58 = load ptr, ptr %3, align 8
  call void @enableStepping(ptr noundef %58)
  br label %99

59:                                               ; preds = %53
  %60 = load ptr, ptr %4, align 8
  %61 = getelementptr inbounds %struct.StepRequest, ptr %60, i32 0, i32 5
  %62 = load i32, ptr %61, align 4
  %63 = icmp sgt i32 %62, 0
  br i1 %63, label %64, label %71

64:                                               ; preds = %59
  %65 = load ptr, ptr %4, align 8
  %66 = getelementptr inbounds %struct.StepRequest, ptr %65, i32 0, i32 4
  %67 = load i8, ptr %66, align 2
  %68 = icmp ne i8 %67, 0
  br i1 %68, label %71, label %69

69:                                               ; preds = %64
  %70 = load ptr, ptr %3, align 8
  call void @enableStepping(ptr noundef %70)
  br label %71

71:                                               ; preds = %69, %64, %59
  br label %99

72:                                               ; preds = %53
  %73 = load ptr, ptr %4, align 8
  %74 = getelementptr inbounds %struct.StepRequest, ptr %73, i32 0, i32 4
  %75 = load i8, ptr %74, align 2
  %76 = zext i8 %75 to i32
  %77 = icmp ne i32 %76, 0
  br i1 %77, label %78, label %85

78:                                               ; preds = %72
  %79 = load ptr, ptr %4, align 8
  %80 = getelementptr inbounds %struct.StepRequest, ptr %79, i32 0, i32 5
  %81 = load i32, ptr %80, align 4
  %82 = icmp sgt i32 %81, 0
  br i1 %82, label %83, label %85

83:                                               ; preds = %78
  %84 = load ptr, ptr %3, align 8
  call void @enableStepping(ptr noundef %84)
  br label %85

85:                                               ; preds = %83, %78, %72
  br label %99

86:                                               ; preds = %53
  br label %87

87:                                               ; preds = %86
  %88 = load ptr, ptr @gdata, align 8
  %89 = icmp ne ptr %88, null
  br i1 %89, label %90, label %97

90:                                               ; preds = %87
  %91 = load ptr, ptr @gdata, align 8
  %92 = getelementptr inbounds %struct.BackendGlobalData, ptr %91, i32 0, i32 3
  %93 = load i8, ptr %92, align 1
  %94 = zext i8 %93 to i32
  %95 = icmp ne i32 %94, 0
  br i1 %95, label %96, label %97

96:                                               ; preds = %90
  call void @jdiAssertionFailed(ptr noundef @.str.4, i32 noundef 793, ptr noundef @.str.48)
  br label %97

97:                                               ; preds = %96, %90, %87
  br label %98

98:                                               ; preds = %97
  br label %99

99:                                               ; preds = %98, %85, %71, %57
  ret void
}

; Function Attrs: nounwind uwtable
define hidden void @stepControl_lock() #0 {
  %1 = load ptr, ptr @stepLock, align 8
  call void @debugMonitorEnter(ptr noundef %1)
  ret void
}

; Function Attrs: nounwind uwtable
define hidden i32 @stepControl_beginStep(ptr noundef %0, ptr noundef %1, i32 noundef %2, i32 noundef %3, ptr noundef %4) #0 {
  %6 = alloca ptr, align 8
  %7 = alloca ptr, align 8
  %8 = alloca i32, align 4
  %9 = alloca i32, align 4
  %10 = alloca ptr, align 8
  %11 = alloca ptr, align 8
  %12 = alloca i32, align 4
  %13 = alloca i32, align 4
  store ptr %0, ptr %6, align 8
  store ptr %1, ptr %7, align 8
  store i32 %2, ptr %8, align 4
  store i32 %3, ptr %9, align 4
  store ptr %4, ptr %10, align 8
  %14 = load ptr, ptr @gdata, align 8
  %15 = getelementptr inbounds %struct.BackendGlobalData, ptr %14, i32 0, i32 38
  %16 = load i32, ptr %15, align 8
  %17 = and i32 %16, 16
  %18 = icmp ne i32 %17, 0
  br i1 %18, label %19, label %23

19:                                               ; preds = %5
  call void @log_message_begin(ptr noundef @.str.5, ptr noundef @.str.4, i32 noundef 806)
  %20 = load ptr, ptr %7, align 8
  %21 = load i32, ptr %8, align 4
  %22 = load i32, ptr %9, align 4
  call void (ptr, ...) @log_message_end(ptr noundef @.str.29, ptr noundef %20, i32 noundef %21, i32 noundef %22)
  br label %24

23:                                               ; preds = %5
  br label %24

24:                                               ; preds = %23, %19
  call void @eventHandler_lock()
  call void @stepControl_lock()
  %25 = load ptr, ptr %7, align 8
  %26 = call ptr @threadControl_getStepRequest(ptr noundef %25)
  store ptr %26, ptr %11, align 8
  %27 = load ptr, ptr %11, align 8
  %28 = icmp eq ptr %27, null
  br i1 %28, label %29, label %30

29:                                               ; preds = %24
  store i32 203, ptr %12, align 4
  br label %84

30:                                               ; preds = %24
  %31 = load ptr, ptr %7, align 8
  %32 = call i32 @threadControl_suspendThread(ptr noundef %31, i8 noundef zeroext 0)
  store i32 %32, ptr %12, align 4
  %33 = load i32, ptr %12, align 4
  %34 = icmp eq i32 %33, 0
  br i1 %34, label %35, label %77

35:                                               ; preds = %30
  %36 = load i32, ptr %8, align 4
  %37 = load ptr, ptr %11, align 8
  %38 = getelementptr inbounds %struct.StepRequest, ptr %37, i32 0, i32 0
  store i32 %36, ptr %38, align 8
  %39 = load i32, ptr %9, align 4
  %40 = load ptr, ptr %11, align 8
  %41 = getelementptr inbounds %struct.StepRequest, ptr %40, i32 0, i32 1
  store i32 %39, ptr %41, align 4
  %42 = load ptr, ptr %11, align 8
  %43 = getelementptr inbounds %struct.StepRequest, ptr %42, i32 0, i32 11
  store ptr null, ptr %43, align 8
  %44 = load ptr, ptr %11, align 8
  %45 = getelementptr inbounds %struct.StepRequest, ptr %44, i32 0, i32 12
  store ptr null, ptr %45, align 8
  %46 = load ptr, ptr %11, align 8
  %47 = getelementptr inbounds %struct.StepRequest, ptr %46, i32 0, i32 13
  store ptr null, ptr %47, align 8
  %48 = load ptr, ptr %10, align 8
  %49 = load ptr, ptr %11, align 8
  %50 = getelementptr inbounds %struct.StepRequest, ptr %49, i32 0, i32 10
  store ptr %48, ptr %50, align 8
  %51 = load ptr, ptr %6, align 8
  %52 = load ptr, ptr %7, align 8
  %53 = load ptr, ptr %11, align 8
  %54 = call i32 @initState(ptr noundef %51, ptr noundef %52, ptr noundef %53)
  store i32 %54, ptr %12, align 4
  %55 = load i32, ptr %12, align 4
  %56 = icmp eq i32 %55, 0
  br i1 %56, label %57, label %60

57:                                               ; preds = %35
  %58 = load ptr, ptr %7, align 8
  %59 = load ptr, ptr %11, align 8
  call void @initEvents(ptr noundef %58, ptr noundef %59)
  br label %60

60:                                               ; preds = %57, %35
  %61 = load ptr, ptr %7, align 8
  %62 = call i32 @threadControl_resumeThread(ptr noundef %61, i8 noundef zeroext 0)
  store i32 %62, ptr %13, align 4
  %63 = load i32, ptr %13, align 4
  %64 = icmp ne i32 %63, 0
  br i1 %64, label %65, label %70

65:                                               ; preds = %60
  %66 = load i32, ptr %12, align 4
  %67 = icmp eq i32 %66, 0
  br i1 %67, label %68, label %70

68:                                               ; preds = %65
  %69 = load i32, ptr %13, align 4
  store i32 %69, ptr %12, align 4
  br label %70

70:                                               ; preds = %68, %65, %60
  %71 = load i32, ptr %12, align 4
  %72 = icmp eq i32 %71, 0
  br i1 %72, label %73, label %76

73:                                               ; preds = %70
  %74 = load ptr, ptr %11, align 8
  %75 = getelementptr inbounds %struct.StepRequest, ptr %74, i32 0, i32 2
  store i8 1, ptr %75, align 8
  br label %76

76:                                               ; preds = %73, %70
  br label %83

77:                                               ; preds = %30
  %78 = load ptr, ptr @stderr, align 8
  %79 = load i32, ptr %12, align 4
  %80 = call ptr @jvmtiErrorText(i32 noundef %79)
  %81 = load i32, ptr %12, align 4
  call void (ptr, ptr, ptr, ptr, ...) @print_message(ptr noundef %78, ptr noundef @.str, ptr noundef @.str.1, ptr noundef @.str.2, ptr noundef %80, i32 noundef %81, ptr noundef @.str.30, ptr noundef @.str.4, i32 noundef 849)
  %82 = load i32, ptr %12, align 4
  call void @debugInit_exit(i32 noundef %82, ptr noundef @.str.30)
  br label %83

83:                                               ; preds = %77, %76
  br label %84

84:                                               ; preds = %83, %29
  call void @stepControl_unlock()
  call void @eventHandler_unlock()
  %85 = load i32, ptr %12, align 4
  ret i32 %85
}