; Function Attrs: nounwind uwtable
define hidden i32 @stepControl_beginStep(ptr noundef %0, ptr noundef %1, i32 noundef %2, i32 noundef %3, ptr noundef %4) local_unnamed_addr #0 {
  %6 = load ptr, ptr @gdata, align 8
  %7 = getelementptr inbounds i8, ptr %6, i64 528
  %8 = load i32, ptr %7, align 8
  %9 = and i32 %8, 16
  %.not = icmp eq i32 %9, 0
  br i1 %.not, label %11, label %10

10:                                               ; preds = %5
  tail call void @log_message_begin(ptr noundef nonnull @.str.5, ptr noundef nonnull @.str.4, i32 noundef 806) #4
  tail call void (ptr, ...) @log_message_end(ptr noundef nonnull @.str.29, ptr noundef %1, i32 noundef %2, i32 noundef %3) #4
  br label %11

11:                                               ; preds = %5, %10
  tail call void @eventHandler_lock() #4
  %12 = load ptr, ptr @stepLock, align 8
  tail call void @debugMonitorEnter(ptr noundef %12) #4
  %13 = tail call ptr @threadControl_getStepRequest(ptr noundef %1) #4
  %14 = icmp eq ptr %13, null
  br i1 %14, label %83, label %15

15:                                               ; preds = %11
  %16 = tail call i32 @threadControl_suspendThread(ptr noundef %1, i8 noundef zeroext 0) #4
  %17 = icmp eq i32 %16, 0
  br i1 %17, label %18, label %80

18:                                               ; preds = %15
  store i32 %2, ptr %13, align 8
  %19 = getelementptr inbounds i8, ptr %13, i64 4
  store i32 %3, ptr %19, align 4
  %20 = getelementptr inbounds i8, ptr %13, i64 56
  %21 = getelementptr inbounds i8, ptr %13, i64 64
  %22 = getelementptr inbounds i8, ptr %13, i64 48
  tail call void @llvm.memset.p0.i64(ptr noundef nonnull align 8 dereferenceable(24) %20, i8 0, i64 24, i1 false)
  store ptr %4, ptr %22, align 8
  %23 = tail call fastcc i32 @initState(ptr noundef %0, ptr noundef %1, ptr noundef nonnull %13)
  %24 = icmp eq i32 %23, 0
  br i1 %24, label %25, label %initEvents.exit

25:                                               ; preds = %18
  %26 = load i32, ptr %19, align 4
  %27 = icmp eq i32 %26, 0
  br i1 %27, label %32, label %28

28:                                               ; preds = %25
  %29 = getelementptr inbounds i8, ptr %13, i64 12
  %30 = load i32, ptr %29, align 4
  %31 = icmp sgt i32 %30, 0
  br i1 %31, label %32, label %50

32:                                               ; preds = %28, %25
  %33 = tail call ptr @eventHandler_createInternalThreadOnly(i32 noundef 12, ptr noundef nonnull @handleExceptionCatchEvent, ptr noundef %1) #4
  store ptr %33, ptr %20, align 8
  %34 = load ptr, ptr @gdata, align 8
  %.not.i = icmp eq ptr %34, null
  br i1 %.not.i, label %42, label %35

35:                                               ; preds = %32
  %36 = getelementptr inbounds i8, ptr %34, i64 17
  %37 = load i8, ptr %36, align 1
  %.not18.i = icmp eq i8 %37, 0
  br i1 %.not18.i, label %42, label %38

38:                                               ; preds = %35
  %39 = load ptr, ptr %21, align 8
  %40 = icmp eq ptr %39, null
  br i1 %40, label %42, label %41

41:                                               ; preds = %38
  tail call void @jdiAssertionFailed(ptr noundef nonnull @.str.4, i32 noundef 751, ptr noundef nonnull @.str.46) #4
  br label %42

42:                                               ; preds = %41, %38, %35, %32
  %43 = tail call ptr @eventHandler_createInternalThreadOnly(i32 noundef 3, ptr noundef nonnull @handleFramePopEvent, ptr noundef %1) #4
  store ptr %43, ptr %21, align 8
  %44 = load ptr, ptr %20, align 8
  %45 = icmp eq ptr %44, null
  %46 = icmp eq ptr %43, null
  %or.cond.i = select i1 %45, i1 true, i1 %46
  br i1 %or.cond.i, label %47, label %50

47:                                               ; preds = %42
  %48 = load ptr, ptr @stderr, align 8
  %49 = tail call ptr @jvmtiErrorText(i32 noundef 204) #4
  tail call void (ptr, ptr, ptr, ptr, ...) @print_message(ptr noundef %48, ptr noundef nonnull @.str, ptr noundef nonnull @.str.1, ptr noundef nonnull @.str.2, ptr noundef %49, i32 noundef 204, ptr noundef nonnull @.str.47, ptr noundef nonnull @.str.4, i32 noundef 760) #4
  tail call void @debugInit_exit(i32 noundef 204, ptr noundef nonnull @.str.47) #4
  br label %50

50:                                               ; preds = %47, %42, %28
  %51 = load i32, ptr %19, align 4
  switch i32 %51, label %69 [
    i32 0, label %52
    i32 1, label %53
    i32 2, label %61
  ]

52:                                               ; preds = %50
  tail call fastcc void @enableStepping(ptr noundef %1)
  br label %initEvents.exit

53:                                               ; preds = %50
  %54 = getelementptr inbounds i8, ptr %13, i64 12
  %55 = load i32, ptr %54, align 4
  %56 = icmp sgt i32 %55, 0
  br i1 %56, label %57, label %initEvents.exit

57:                                               ; preds = %53
  %58 = getelementptr inbounds i8, ptr %13, i64 10
  %59 = load i8, ptr %58, align 2
  %.not20.i = icmp eq i8 %59, 0
  br i1 %.not20.i, label %60, label %initEvents.exit

60:                                               ; preds = %57
  tail call fastcc void @enableStepping(ptr noundef %1)
  br label %initEvents.exit

61:                                               ; preds = %50
  %62 = getelementptr inbounds i8, ptr %13, i64 10
  %63 = load i8, ptr %62, align 2
  %.not19.i = icmp eq i8 %63, 0
  br i1 %.not19.i, label %initEvents.exit, label %64

64:                                               ; preds = %61
  %65 = getelementptr inbounds i8, ptr %13, i64 12
  %66 = load i32, ptr %65, align 4
  %67 = icmp sgt i32 %66, 0
  br i1 %67, label %68, label %initEvents.exit

68:                                               ; preds = %64
  tail call fastcc void @enableStepping(ptr noundef %1)
  br label %initEvents.exit

69:                                               ; preds = %50
  %70 = load ptr, ptr @gdata, align 8
  %.not21.i = icmp eq ptr %70, null
  br i1 %.not21.i, label %initEvents.exit, label %71

71:                                               ; preds = %69
  %72 = getelementptr inbounds i8, ptr %70, i64 17
  %73 = load i8, ptr %72, align 1
  %.not22.i = icmp eq i8 %73, 0
  br i1 %.not22.i, label %initEvents.exit, label %74

74:                                               ; preds = %71
  tail call void @jdiAssertionFailed(ptr noundef nonnull @.str.4, i32 noundef 793, ptr noundef nonnull @.str.48) #4
  br label %initEvents.exit

initEvents.exit:                                  ; preds = %74, %71, %69, %68, %64, %61, %60, %57, %53, %52, %18
  %75 = tail call i32 @threadControl_resumeThread(ptr noundef %1, i8 noundef zeroext 0) #4
  %76 = icmp ne i32 %75, 0
  %or.cond = and i1 %24, %76
  %spec.select = select i1 %or.cond, i32 %75, i32 %23
  %77 = icmp eq i32 %spec.select, 0
  br i1 %77, label %78, label %83

78:                                               ; preds = %initEvents.exit
  %79 = getelementptr inbounds i8, ptr %13, i64 8
  store i8 1, ptr %79, align 8
  br label %83

80:                                               ; preds = %15
  %81 = load ptr, ptr @stderr, align 8
  %82 = tail call ptr @jvmtiErrorText(i32 noundef %16) #4
  tail call void (ptr, ptr, ptr, ptr, ...) @print_message(ptr noundef %81, ptr noundef nonnull @.str, ptr noundef nonnull @.str.1, ptr noundef nonnull @.str.2, ptr noundef %82, i32 noundef %16, ptr noundef nonnull @.str.30, ptr noundef nonnull @.str.4, i32 noundef 849) #4
  tail call void @debugInit_exit(i32 noundef %16, ptr noundef nonnull @.str.30) #4
  br label %83

83:                                               ; preds = %11, %80, %78, %initEvents.exit
  %.1 = phi i32 [ 0, %78 ], [ %spec.select, %initEvents.exit ], [ %16, %80 ], [ 203, %11 ]
  %84 = load ptr, ptr @stepLock, align 8
  tail call void @debugMonitorExit(ptr noundef %84) #4
  tail call void @eventHandler_unlock() #4
  ret i32 %.1
}